; Function Attrs: nounwind uwtable
define dso_local i32 @fdt_add_subnode_namelen(ptr noundef %0, i32 noundef %1, ptr noundef %2, i32 noundef %3) local_unnamed_addr #0 {
  %5 = alloca i32, align 4
  call void @llvm.lifetime.start.p0(i64 4, ptr nonnull %5) #9
  %6 = tail call i32 @fdt_ro_probe_(ptr noundef %0) #9
  %7 = icmp sgt i32 %6, -1
  br i1 %7, label %8, label %fdt_rw_probe_.exit.thread

8:                                                ; preds = %4
  %9 = getelementptr inbounds nuw i8, ptr %0, i64 20
  %10 = load i8, ptr %9, align 1
  %11 = zext i8 %10 to i32
  %12 = shl nuw i32 %11, 24
  %13 = getelementptr inbounds nuw i8, ptr %0, i64 21
  %14 = load i8, ptr %13, align 1
  %15 = zext i8 %14 to i32
  %16 = shl nuw nsw i32 %15, 16
  %17 = or disjoint i32 %16, %12
  %18 = getelementptr inbounds nuw i8, ptr %0, i64 22
  %19 = load i8, ptr %18, align 1
  %20 = zext i8 %19 to i32
  %21 = shl nuw nsw i32 %20, 8
  %22 = or disjoint i32 %17, %21
  %23 = getelementptr inbounds nuw i8, ptr %0, i64 23
  %24 = load i8, ptr %23, align 1
  %25 = zext i8 %24 to i32
  %26 = or disjoint i32 %22, %25
  %27 = icmp ult i32 %26, 17
  br i1 %27, label %fdt_rw_probe_.exit.thread, label %28

28:                                               ; preds = %8
  %29 = getelementptr inbounds nuw i8, ptr %0, i64 36
  %30 = load i8, ptr %29, align 1
  %31 = zext i8 %30 to i32
  %32 = shl nuw i32 %31, 24
  %33 = getelementptr inbounds nuw i8, ptr %0, i64 37
  %34 = load i8, ptr %33, align 1
  %35 = zext i8 %34 to i32
  %36 = shl nuw nsw i32 %35, 16
  %37 = or disjoint i32 %36, %32
  %38 = getelementptr inbounds nuw i8, ptr %0, i64 38
  %39 = load i8, ptr %38, align 1
  %40 = zext i8 %39 to i32
  %41 = shl nuw nsw i32 %40, 8
  %42 = or disjoint i32 %37, %41
  %43 = getelementptr inbounds nuw i8, ptr %0, i64 39
  %44 = load i8, ptr %43, align 1
  %45 = zext i8 %44 to i32
  %46 = or disjoint i32 %42, %45
  %47 = tail call fastcc i32 @fdt_blocks_misordered_(ptr noundef nonnull %0, i32 noundef 16, i32 noundef %46)
  %.not.i = icmp eq i32 %47, 0
  br i1 %.not.i, label %48, label %fdt_rw_probe_.exit.thread

48:                                               ; preds = %28
  %.not9.i = icmp eq i32 %26, 17
  br i1 %.not9.i, label %fdt_rw_probe_.exit, label %49

49:                                               ; preds = %48
  store i32 285212672, ptr %9, align 4
  br label %fdt_rw_probe_.exit

fdt_rw_probe_.exit:                               ; preds = %49, %48
  %50 = tail call i32 @fdt_subnode_offset_namelen(ptr noundef nonnull %0, i32 noundef %1, ptr noundef %2, i32 noundef %3) #9
  %51 = icmp sgt i32 %50, -1
  br i1 %51, label %fdt_rw_probe_.exit.thread, label %52

52:                                               ; preds = %fdt_rw_probe_.exit
  %.not39 = icmp eq i32 %50, -1
  br i1 %.not39, label %53, label %fdt_rw_probe_.exit.thread

53:                                               ; preds = %52
  store i32 0, ptr %5, align 4, !annotation !4
  %54 = call i32 @fdt_next_tag(ptr noundef nonnull %0, i32 noundef %1, ptr noundef nonnull %5) #9
  %.not40 = icmp eq i32 %54, 1
  br i1 %.not40, label %.preheader, label %fdt_rw_probe_.exit.thread

.preheader:                                       ; preds = %53, %.preheader
  %55 = load i32, ptr %5, align 4
  %56 = call i32 @fdt_next_tag(ptr noundef nonnull %0, i32 noundef %55, ptr noundef nonnull %5) #9
  %57 = add i32 %56, -3
  %58 = icmp ult i32 %57, 2
  br i1 %58, label %.preheader, label %59, !llvm.loop !5

59:                                               ; preds = %.preheader
  %60 = getelementptr inbounds nuw i8, ptr %0, i64 8
  %61 = load i8, ptr %60, align 1
  %62 = zext i8 %61 to i64
  %63 = shl nuw nsw i64 %62, 24
  %64 = getelementptr inbounds nuw i8, ptr %0, i64 9
  %65 = load i8, ptr %64, align 1
  %66 = zext i8 %65 to i64
  %67 = shl nuw nsw i64 %66, 16
  %68 = or disjoint i64 %67, %63
  %69 = getelementptr inbounds nuw i8, ptr %0, i64 10
  %70 = load i8, ptr %69, align 1
  %71 = zext i8 %70 to i64
  %72 = shl nuw nsw i64 %71, 8
  %73 = or disjoint i64 %68, %72
  %74 = getelementptr inbounds nuw i8, ptr %0, i64 11
  %75 = load i8, ptr %74, align 1
  %76 = zext i8 %75 to i64
  %77 = or disjoint i64 %73, %76
  %78 = getelementptr inbounds nuw i8, ptr %0, i64 %77
  %79 = sext i32 %55 to i64
  %80 = getelementptr inbounds i8, ptr %78, i64 %79
  %81 = add i32 %3, 1
  %82 = sext i32 %81 to i64
  %83 = add nsw i64 %82, 3
  %84 = and i64 %83, -4
  %85 = trunc i64 %84 to i32
  %86 = add i32 %85, 8
  %87 = call fastcc i32 @fdt_splice_struct_(ptr noundef nonnull %0, ptr noundef nonnull %80, i32 noundef 0, i32 noundef %86)
  %.not41 = icmp eq i32 %87, 0
  br i1 %.not41, label %88, label %fdt_rw_probe_.exit.thread

88:                                               ; preds = %59
  store i32 16777216, ptr %80, align 4
  %89 = getelementptr inbounds nuw i8, ptr %80, i64 4
  call void @llvm.memset.p0.i64(ptr nonnull align 4 %89, i8 0, i64 %84, i1 false)
  %90 = sext i32 %3 to i64
  call void @llvm.memcpy.p0.p0.i64(ptr nonnull align 4 %89, ptr align 1 %2, i64 %90, i1 false)
  %91 = sext i32 %86 to i64
  %92 = getelementptr inbounds i8, ptr %80, i64 %91
  %93 = getelementptr inbounds i8, ptr %92, i64 -4
  store i32 33554432, ptr %93, align 4
  br label %fdt_rw_probe_.exit.thread

fdt_rw_probe_.exit.thread:                        ; preds = %28, %8, %4, %59, %53, %52, %fdt_rw_probe_.exit, %88
  %.1 = phi i32 [ %55, %88 ], [ -2, %fdt_rw_probe_.exit ], [ %50, %52 ], [ -13, %53 ], [ %87, %59 ], [ -12, %28 ], [ -10, %8 ], [ %6, %4 ]
  call void @llvm.lifetime.end.p0(i64 4, ptr nonnull %5) #9
  ret i32 %.1
}